target datalayout = "e-m:e-p270:32:32-p271:32:32-p272:64:64-i64:64-i128:128-f80:128-n8:16:32:64-S128"
target triple = "x86_64-pc-linux-gnu"

%"class.euf::solve_eqs" = type { %class.dependent_expr_simplifier, %"struct.euf::solve_eqs::stats", %"struct.euf::solve_eqs::config", %class.th_rewriter, %class.scoped_ptr_vector, %class.svector, %class.ptr_vector.1, %class.svector, %class.svector, %class.vector.3, %class.scoped_ptr, %class.obj_mark, %class.ptr_vector.4, %class.obj_mark, %class.obj_map }
%class.dependent_expr_simplifier = type { ptr, ptr, ptr, ptr }
%"struct.euf::solve_eqs::stats" = type { i32, i32 }
%"struct.euf::solve_eqs::config" = type { i8, i32 }
%class.th_rewriter = type { ptr, %class.params_ref }
%class.params_ref = type { ptr }
%class.scoped_ptr_vector = type { %class.ptr_vector }
%class.ptr_vector = type { %class.vector }
%class.vector = type { ptr }
%class.ptr_vector.1 = type { %class.vector.2 }
%class.vector.2 = type { ptr }
%class.svector = type { %class.vector.0 }
%class.vector.0 = type { ptr }
%class.vector.3 = type { ptr }
%class.scoped_ptr = type { ptr }
%class.ptr_vector.4 = type { %class.vector.5 }
%class.vector.5 = type { ptr }
%class.obj_mark = type { [8 x i8], %class.bit_vector }
%class.bit_vector = type { i32, i32, ptr }
%class.obj_map = type { %class.core_hashtable }
%class.core_hashtable = type <{ ptr, i32, i32, i32, [4 x i8] }>
%class.expr_substitution = type <{ ptr, %class.obj_map.13, %class.scoped_ptr.18, %class.scoped_ptr.19, i8, [7 x i8] }>
%class.obj_map.13 = type { %class.core_hashtable.14 }
%class.core_hashtable.14 = type <{ ptr, i32, i32, i32, [4 x i8] }>
%class.scoped_ptr.18 = type { ptr }
%class.scoped_ptr.19 = type { ptr }

; Function Attrs: mustprogress nounwind uwtable
define linkonce_odr hidden noundef zeroext i1 @_ZNK14core_hashtableIN7obj_mapI4exprPS1_E13obj_map_entryE8obj_hashINS3_8key_dataEE10default_eqIS6_EE5emptyEv(ptr noundef nonnull align 8 dereferenceable(20) %0) #6 comdat align 2 {
  %2 = alloca ptr, align 8
  store ptr %0, ptr %2, align 8, !tbaa !428
  %3 = load ptr, ptr %2, align 8
  %4 = getelementptr inbounds nuw %class.core_hashtable.14, ptr %3, i32 0, i32 2
  %5 = load i32, ptr %4, align 4, !tbaa !430
  %6 = icmp eq i32 %5, 0
  ret i1 %6
}

; Function Attrs: mustprogress uwtable
define linkonce_odr hidden noundef zeroext i1 @_ZNK7obj_mapI4exprPS0_E5emptyEv(ptr noundef nonnull align 8 dereferenceable(24) %0) #4 comdat align 2 {
  %2 = alloca ptr, align 8
  store ptr %0, ptr %2, align 8, !tbaa !230
  %3 = load ptr, ptr %2, align 8
  %4 = getelementptr inbounds nuw %class.obj_map.13, ptr %3, i32 0, i32 0
  %5 = call noundef zeroext i1 @_ZNK14core_hashtableIN7obj_mapI4exprPS1_E13obj_map_entryE8obj_hashINS3_8key_dataEE10default_eqIS6_EE5emptyEv(ptr noundef nonnull align 8 dereferenceable(20) %4)
  ret i1 %5
}

; Function Attrs: mustprogress nounwind uwtable
define linkonce_odr hidden noundef ptr @_ZN10scoped_ptrI17expr_substitutionE6detachEv(ptr noundef nonnull align 8 dereferenceable(8) %0) #6 comdat align 2 {
  %2 = alloca ptr, align 8
  %3 = alloca ptr, align 8
  store ptr %0, ptr %2, align 8, !tbaa !88
  %4 = load ptr, ptr %2, align 8
  call void @llvm.lifetime.start.p0(i64 8, ptr %3) #3
  %5 = getelementptr inbounds nuw %class.scoped_ptr, ptr %4, i32 0, i32 0
  %6 = load ptr, ptr %5, align 8, !tbaa !92
  store ptr %6, ptr %3, align 8, !tbaa !90
  %7 = getelementptr inbounds nuw %class.scoped_ptr, ptr %4, i32 0, i32 0
  store ptr null, ptr %7, align 8, !tbaa !92
  %8 = load ptr, ptr %3, align 8, !tbaa !90
  call void @llvm.lifetime.end.p0(i64 8, ptr %3) #3
  ret ptr %8
}

; Function Attrs: mustprogress uwtable
define linkonce_odr hidden noundef zeroext i1 @_ZNK17expr_substitution5emptyEv(ptr noundef nonnull align 8 dereferenceable(49) %0) #4 comdat align 2 {
  %2 = alloca ptr, align 8
  store ptr %0, ptr %2, align 8, !tbaa !90
  %3 = load ptr, ptr %2, align 8
  %4 = getelementptr inbounds nuw %class.expr_substitution, ptr %3, i32 0, i32 1
  %5 = call noundef zeroext i1 @_ZNK7obj_mapI4exprPS0_E5emptyEv(ptr noundef nonnull align 8 dereferenceable(24) %4)
  ret i1 %5
}

; Function Attrs: mustprogress nounwind uwtable
define linkonce_odr hidden noundef ptr @_ZNK10scoped_ptrI17expr_substitutionEptEv(ptr noundef nonnull align 8 dereferenceable(8) %0) #6 comdat align 2 {
  %2 = alloca ptr, align 8
  store ptr %0, ptr %2, align 8, !tbaa !88
  %3 = load ptr, ptr %2, align 8
  %4 = getelementptr inbounds nuw %class.scoped_ptr, ptr %3, i32 0, i32 0
  %5 = load ptr, ptr %4, align 8, !tbaa !92
  ret ptr %5
}

; Function Attrs: mustprogress uwtable
define hidden void @_ZN3euf9solve_eqs10save_substERK6vectorI14dependent_exprLb1EjE(ptr noundef nonnull align 8 dereferenceable(200) %0, ptr noundef nonnull align 8 dereferenceable(8) %1) #4 align 2 {
  %3 = alloca ptr, align 8
  %4 = alloca ptr, align 8
  store ptr %0, ptr %3, align 8, !tbaa !3
  store ptr %1, ptr %4, align 8, !tbaa !171
  %5 = load ptr, ptr %3, align 8
  %6 = getelementptr inbounds nuw %"class.euf::solve_eqs", ptr %5, i32 0, i32 10
  %7 = call noundef ptr @_ZNK10scoped_ptrI17expr_substitutionEptEv(ptr noundef nonnull align 8 dereferenceable(8) %6)
  %8 = call noundef zeroext i1 @_ZNK17expr_substitution5emptyEv(ptr noundef nonnull align 8 dereferenceable(49) %7)
  br i1 %8, label %19, label %9

9:                                                ; preds = %2
  %10 = getelementptr inbounds nuw %class.dependent_expr_simplifier, ptr %5, i32 0, i32 2
  %11 = load ptr, ptr %10, align 8, !tbaa !21
  %12 = load ptr, ptr %11, align 8, !tbaa !26
  %13 = getelementptr inbounds ptr, ptr %12, i64 7
  %14 = load ptr, ptr %13, align 8
  %15 = call noundef nonnull align 8 dereferenceable(97) ptr %14(ptr noundef nonnull align 8 dereferenceable(160) %11)
  %16 = getelementptr inbounds nuw %"class.euf::solve_eqs", ptr %5, i32 0, i32 10
  %17 = call noundef ptr @_ZN10scoped_ptrI17expr_substitutionE6detachEv(ptr noundef nonnull align 8 dereferenceable(8) %16)
  %18 = load ptr, ptr %4, align 8, !tbaa !171
  call void @_ZN26model_reconstruction_trail4pushEP17expr_substitutionRK6vectorI14dependent_exprLb1EjE(ptr noundef nonnull align 8 dereferenceable(97) %15, ptr noundef %17, ptr noundef nonnull align 8 dereferenceable(8) %18)
  br label %19

19:                                               ; preds = %9, %2
  ret void
}