; Function Attrs: mustprogress uwtable
define hidden void @_ZN3euf9solve_eqs10save_substERK6vectorI14dependent_exprLb1EjE(ptr noundef nonnull align 8 captures(none) dereferenceable(200) %0, ptr noundef nonnull align 8 dereferenceable(8) %1) local_unnamed_addr #3 align 2 {
  %3 = getelementptr inbounds nuw i8, ptr %0, i64 112
  %4 = load ptr, ptr %3, align 8, !tbaa !124
  %5 = getelementptr inbounds nuw i8, ptr %4, i64 20
  %6 = load i32, ptr %5, align 4, !tbaa !179
  %7 = icmp eq i32 %6, 0
  br i1 %7, label %16, label %8

8:                                                ; preds = %2
  %9 = getelementptr inbounds nuw i8, ptr %0, i64 16
  %10 = load ptr, ptr %9, align 8, !tbaa !14
  %11 = load ptr, ptr %10, align 8, !tbaa !45
  %12 = getelementptr inbounds nuw i8, ptr %11, i64 56
  %13 = load ptr, ptr %12, align 8
  %14 = tail call noundef nonnull align 8 dereferenceable(97) ptr %13(ptr noundef nonnull align 8 dereferenceable(160) %10)
  %15 = load ptr, ptr %3, align 8, !tbaa !124
  store ptr null, ptr %3, align 8, !tbaa !124
  tail call void @_ZN26model_reconstruction_trail4pushEP17expr_substitutionRK6vectorI14dependent_exprLb1EjE(ptr noundef nonnull align 8 dereferenceable(97) %14, ptr noundef %15, ptr noundef nonnull align 8 dereferenceable(8) %1)
  br label %16

16:                                               ; preds = %8, %2
  ret void
}